target datalayout = "e-m:e-p270:32:32-p271:32:32-p272:64:64-i64:64-i128:128-f80:128-n8:16:32:64-S128"
target triple = "x86_64-pc-linux-gnu"

; Function Attrs: mustprogress nounwind uwtable
define linkonce_odr noundef float @_ZSt4fabsf(float noundef %0) #0 comdat {
  %2 = alloca float, align 4
  store float %0, ptr %2, align 4
  %3 = load float, ptr %2, align 4
  %4 = call float @llvm.fabs.f32(float %3)
  ret float %4
}

; Function Attrs: mustprogress uwtable
define internal noundef zeroext i1 @_ZN3gmx12_GLOBAL__N_115boxElementEqualEff(float noundef %0, float noundef %1) #1 {
  %3 = alloca float, align 4
  %4 = alloca float, align 4
  store float %0, ptr %3, align 4
  store float %1, ptr %4, align 4
  %5 = load float, ptr %3, align 4
  %6 = fpext float %5 to double
  %7 = load float, ptr %4, align 4
  %8 = fpext float %7 to double
  %9 = call noundef zeroext i1 @_Z14gmx_within_tolddd(double noundef %6, double noundef %8, double noundef 0x3EB4000000000000)
  br i1 %9, label %17, label %10

10:                                               ; preds = %2
  %11 = load float, ptr %3, align 4
  %12 = load float, ptr %4, align 4
  %13 = fsub float %11, %12
  %14 = call noundef float @_ZSt4fabsf(float noundef %13)
  %15 = fpext float %14 to double
  %16 = fcmp olt double %15, 1.000000e-03
  br label %17

17:                                               ; preds = %10, %2
  %18 = phi i1 [ true, %2 ], [ %16, %10 ]
  ret i1 %18
}

; Function Attrs: mustprogress uwtable
define noundef zeroext i1 @_ZN3gmx9boxIsZeroEPA3_Kf(ptr noundef %0) #1 {
  %2 = alloca ptr, align 8
  store ptr %0, ptr %2, align 8
  %3 = load ptr, ptr %2, align 8
  %4 = getelementptr inbounds [3 x float], ptr %3, i64 0
  %5 = getelementptr inbounds [3 x float], ptr %4, i64 0, i64 0
  %6 = load float, ptr %5, align 4
  %7 = call noundef zeroext i1 @_ZN3gmx12_GLOBAL__N_115boxElementEqualEff(float noundef %6, float noundef 0.000000e+00)
  br i1 %7, label %8, label %38

8:                                                ; preds = %1
  %9 = load ptr, ptr %2, align 8
  %10 = getelementptr inbounds [3 x float], ptr %9, i64 1
  %11 = getelementptr inbounds [3 x float], ptr %10, i64 0, i64 0
  %12 = load float, ptr %11, align 4
  %13 = call noundef zeroext i1 @_ZN3gmx12_GLOBAL__N_115boxElementEqualEff(float noundef %12, float noundef 0.000000e+00)
  br i1 %13, label %14, label %38

14:                                               ; preds = %8
  %15 = load ptr, ptr %2, align 8
  %16 = getelementptr inbounds [3 x float], ptr %15, i64 1
  %17 = getelementptr inbounds [3 x float], ptr %16, i64 0, i64 1
  %18 = load float, ptr %17, align 4
  %19 = call noundef zeroext i1 @_ZN3gmx12_GLOBAL__N_115boxElementEqualEff(float noundef %18, float noundef 0.000000e+00)
  br i1 %19, label %20, label %38

20:                                               ; preds = %14
  %21 = load ptr, ptr %2, align 8
  %22 = getelementptr inbounds [3 x float], ptr %21, i64 2
  %23 = getelementptr inbounds [3 x float], ptr %22, i64 0, i64 0
  %24 = load float, ptr %23, align 4
  %25 = call noundef zeroext i1 @_ZN3gmx12_GLOBAL__N_115boxElementEqualEff(float noundef %24, float noundef 0.000000e+00)
  br i1 %25, label %26, label %38

26:                                               ; preds = %20
  %27 = load ptr, ptr %2, align 8
  %28 = getelementptr inbounds [3 x float], ptr %27, i64 2
  %29 = getelementptr inbounds [3 x float], ptr %28, i64 0, i64 1
  %30 = load float, ptr %29, align 4
  %31 = call noundef zeroext i1 @_ZN3gmx12_GLOBAL__N_115boxElementEqualEff(float noundef %30, float noundef 0.000000e+00)
  br i1 %31, label %32, label %38

32:                                               ; preds = %26
  %33 = load ptr, ptr %2, align 8
  %34 = getelementptr inbounds [3 x float], ptr %33, i64 2
  %35 = getelementptr inbounds [3 x float], ptr %34, i64 0, i64 2
  %36 = load float, ptr %35, align 4
  %37 = call noundef zeroext i1 @_ZN3gmx12_GLOBAL__N_115boxElementEqualEff(float noundef %36, float noundef 0.000000e+00)
  br label %38

38:                                               ; preds = %32, %26, %20, %14, %8, %1
  %39 = phi i1 [ false, %26 ], [ false, %20 ], [ false, %14 ], [ false, %8 ], [ false, %1 ], [ %37, %32 ]
  ret i1 %39
}