; Function Attrs: mustprogress uwtable
define noundef zeroext i1 @_ZN3gmx9boxIsZeroEPA3_Kf(ptr nocapture noundef readonly %0) local_unnamed_addr #1 {
  %2 = load float, ptr %0, align 4
  %3 = fpext float %2 to double
  %4 = tail call noundef zeroext i1 @_Z14gmx_within_tolddd(double noundef %3, double noundef 0.000000e+00, double noundef 0x3EB4000000000000)
  br i1 %4, label %_ZN3gmx12_GLOBAL__N_115boxElementEqualEff.exit.thread, label %_ZN3gmx12_GLOBAL__N_115boxElementEqualEff.exit

_ZN3gmx12_GLOBAL__N_115boxElementEqualEff.exit:   ; preds = %1
  %5 = tail call noundef float @llvm.fabs.f32(float %2)
  %6 = fpext float %5 to double
  %7 = fcmp olt double %6, 1.000000e-03
  br i1 %7, label %_ZN3gmx12_GLOBAL__N_115boxElementEqualEff.exit.thread, label %_ZN3gmx12_GLOBAL__N_115boxElementEqualEff.exit10

_ZN3gmx12_GLOBAL__N_115boxElementEqualEff.exit.thread: ; preds = %1, %_ZN3gmx12_GLOBAL__N_115boxElementEqualEff.exit
  %8 = getelementptr inbounds i8, ptr %0, i64 12
  %9 = load float, ptr %8, align 4
  %10 = fpext float %9 to double
  %11 = tail call noundef zeroext i1 @_Z14gmx_within_tolddd(double noundef %10, double noundef 0.000000e+00, double noundef 0x3EB4000000000000)
  br i1 %11, label %_ZN3gmx12_GLOBAL__N_115boxElementEqualEff.exit6.thread, label %_ZN3gmx12_GLOBAL__N_115boxElementEqualEff.exit6

_ZN3gmx12_GLOBAL__N_115boxElementEqualEff.exit6:  ; preds = %_ZN3gmx12_GLOBAL__N_115boxElementEqualEff.exit.thread
  %12 = tail call noundef float @llvm.fabs.f32(float %9)
  %13 = fpext float %12 to double
  %14 = fcmp olt double %13, 1.000000e-03
  br i1 %14, label %_ZN3gmx12_GLOBAL__N_115boxElementEqualEff.exit6.thread, label %_ZN3gmx12_GLOBAL__N_115boxElementEqualEff.exit10

_ZN3gmx12_GLOBAL__N_115boxElementEqualEff.exit6.thread: ; preds = %_ZN3gmx12_GLOBAL__N_115boxElementEqualEff.exit.thread, %_ZN3gmx12_GLOBAL__N_115boxElementEqualEff.exit6
  %15 = getelementptr inbounds i8, ptr %0, i64 16
  %16 = load float, ptr %15, align 4
  %17 = fpext float %16 to double
  %18 = tail call noundef zeroext i1 @_Z14gmx_within_tolddd(double noundef %17, double noundef 0.000000e+00, double noundef 0x3EB4000000000000)
  br i1 %18, label %_ZN3gmx12_GLOBAL__N_115boxElementEqualEff.exit7.thread, label %_ZN3gmx12_GLOBAL__N_115boxElementEqualEff.exit7

_ZN3gmx12_GLOBAL__N_115boxElementEqualEff.exit7:  ; preds = %_ZN3gmx12_GLOBAL__N_115boxElementEqualEff.exit6.thread
  %19 = tail call noundef float @llvm.fabs.f32(float %16)
  %20 = fpext float %19 to double
  %21 = fcmp olt double %20, 1.000000e-03
  br i1 %21, label %_ZN3gmx12_GLOBAL__N_115boxElementEqualEff.exit7.thread, label %_ZN3gmx12_GLOBAL__N_115boxElementEqualEff.exit10

_ZN3gmx12_GLOBAL__N_115boxElementEqualEff.exit7.thread: ; preds = %_ZN3gmx12_GLOBAL__N_115boxElementEqualEff.exit6.thread, %_ZN3gmx12_GLOBAL__N_115boxElementEqualEff.exit7
  %22 = getelementptr inbounds i8, ptr %0, i64 24
  %23 = load float, ptr %22, align 4
  %24 = fpext float %23 to double
  %25 = tail call noundef zeroext i1 @_Z14gmx_within_tolddd(double noundef %24, double noundef 0.000000e+00, double noundef 0x3EB4000000000000)
  br i1 %25, label %_ZN3gmx12_GLOBAL__N_115boxElementEqualEff.exit8.thread, label %_ZN3gmx12_GLOBAL__N_115boxElementEqualEff.exit8

_ZN3gmx12_GLOBAL__N_115boxElementEqualEff.exit8:  ; preds = %_ZN3gmx12_GLOBAL__N_115boxElementEqualEff.exit7.thread
  %26 = tail call noundef float @llvm.fabs.f32(float %23)
  %27 = fpext float %26 to double
  %28 = fcmp olt double %27, 1.000000e-03
  br i1 %28, label %_ZN3gmx12_GLOBAL__N_115boxElementEqualEff.exit8.thread, label %_ZN3gmx12_GLOBAL__N_115boxElementEqualEff.exit10

_ZN3gmx12_GLOBAL__N_115boxElementEqualEff.exit8.thread: ; preds = %_ZN3gmx12_GLOBAL__N_115boxElementEqualEff.exit7.thread, %_ZN3gmx12_GLOBAL__N_115boxElementEqualEff.exit8
  %29 = getelementptr inbounds i8, ptr %0, i64 28
  %30 = load float, ptr %29, align 4
  %31 = fpext float %30 to double
  %32 = tail call noundef zeroext i1 @_Z14gmx_within_tolddd(double noundef %31, double noundef 0.000000e+00, double noundef 0x3EB4000000000000)
  br i1 %32, label %_ZN3gmx12_GLOBAL__N_115boxElementEqualEff.exit9.thread, label %_ZN3gmx12_GLOBAL__N_115boxElementEqualEff.exit9

_ZN3gmx12_GLOBAL__N_115boxElementEqualEff.exit9:  ; preds = %_ZN3gmx12_GLOBAL__N_115boxElementEqualEff.exit8.thread
  %33 = tail call noundef float @llvm.fabs.f32(float %30)
  %34 = fpext float %33 to double
  %35 = fcmp olt double %34, 1.000000e-03
  br i1 %35, label %_ZN3gmx12_GLOBAL__N_115boxElementEqualEff.exit9.thread, label %_ZN3gmx12_GLOBAL__N_115boxElementEqualEff.exit10

_ZN3gmx12_GLOBAL__N_115boxElementEqualEff.exit9.thread: ; preds = %_ZN3gmx12_GLOBAL__N_115boxElementEqualEff.exit8.thread, %_ZN3gmx12_GLOBAL__N_115boxElementEqualEff.exit9
  %36 = getelementptr inbounds i8, ptr %0, i64 32
  %37 = load float, ptr %36, align 4
  %38 = fpext float %37 to double
  %39 = tail call noundef zeroext i1 @_Z14gmx_within_tolddd(double noundef %38, double noundef 0.000000e+00, double noundef 0x3EB4000000000000)
  br i1 %39, label %_ZN3gmx12_GLOBAL__N_115boxElementEqualEff.exit10, label %40

40:                                               ; preds = %_ZN3gmx12_GLOBAL__N_115boxElementEqualEff.exit9.thread
  %41 = tail call noundef float @llvm.fabs.f32(float %37)
  %42 = fpext float %41 to double
  %43 = fcmp olt double %42, 1.000000e-03
  br label %_ZN3gmx12_GLOBAL__N_115boxElementEqualEff.exit10

_ZN3gmx12_GLOBAL__N_115boxElementEqualEff.exit10: ; preds = %40, %_ZN3gmx12_GLOBAL__N_115boxElementEqualEff.exit9.thread, %_ZN3gmx12_GLOBAL__N_115boxElementEqualEff.exit9, %_ZN3gmx12_GLOBAL__N_115boxElementEqualEff.exit8, %_ZN3gmx12_GLOBAL__N_115boxElementEqualEff.exit7, %_ZN3gmx12_GLOBAL__N_115boxElementEqualEff.exit6, %_ZN3gmx12_GLOBAL__N_115boxElementEqualEff.exit
  %44 = phi i1 [ false, %_ZN3gmx12_GLOBAL__N_115boxElementEqualEff.exit9 ], [ false, %_ZN3gmx12_GLOBAL__N_115boxElementEqualEff.exit8 ], [ false, %_ZN3gmx12_GLOBAL__N_115boxElementEqualEff.exit7 ], [ false, %_ZN3gmx12_GLOBAL__N_115boxElementEqualEff.exit6 ], [ false, %_ZN3gmx12_GLOBAL__N_115boxElementEqualEff.exit ], [ true, %_ZN3gmx12_GLOBAL__N_115boxElementEqualEff.exit9.thread ], [ %43, %40 ]
  ret i1 %44
}